; Function Attrs: mustprogress uwtable
define hidden noundef zeroext i1 @_ZN3sls12basic_plugin14try_repair_xorEP3appj(ptr noundef nonnull readonly align 8 captures(none) dereferenceable(56) %0, ptr noundef %1, i32 noundef %2) local_unnamed_addr #3 align 2 {
  %4 = getelementptr inbounds nuw i8, ptr %1, i64 32
  %5 = zext i32 %2 to i64
  %6 = getelementptr inbounds nuw [0 x ptr], ptr %4, i64 0, i64 %5
  %7 = load ptr, ptr %6, align 8, !tbaa !36
  %8 = getelementptr inbounds nuw i8, ptr %1, i64 24
  %9 = load i32, ptr %8, align 8, !tbaa !35
  %.not17 = icmp eq i32 %9, 0
  br i1 %.not17, label %._crit_edge, label %.lr.ph

.lr.ph:                                           ; preds = %3
  %10 = getelementptr inbounds nuw i8, ptr %0, i64 8
  br label %35

._crit_edge:                                      ; preds = %45, %3
  %.0.lcssa = phi i8 [ 0, %3 ], [ %.1, %45 ]
  %11 = getelementptr inbounds nuw i8, ptr %0, i64 8
  %12 = load ptr, ptr %11, align 8, !tbaa !11
  %13 = tail call noundef zeroext i1 @_ZN3sls7context7is_trueEP4expr(ptr noundef nonnull align 8 dereferenceable(321) %12, ptr noundef nonnull %1)
  %14 = zext i1 %13 to i8
  %15 = icmp ne i8 %.0.lcssa, %14
  %16 = load ptr, ptr %11, align 8, !tbaa !11
  %17 = tail call i32 @_ZN3sls7context10mk_literalEP4expr(ptr noundef nonnull align 8 dereferenceable(321) %16, ptr noundef %7)
  %18 = load ptr, ptr %11, align 8, !tbaa !11
  %19 = getelementptr inbounds nuw i8, ptr %18, i64 8
  %20 = load ptr, ptr %19, align 8, !tbaa !101
  %21 = load ptr, ptr %20, align 8, !tbaa !129
  %22 = getelementptr inbounds nuw i8, ptr %21, i64 80
  %23 = load ptr, ptr %22, align 8
  %24 = tail call noundef zeroext i1 %23(ptr noundef nonnull align 8 dereferenceable(8) %20, i32 %17)
  %25 = xor i1 %15, %24
  br i1 %25, label %26, label %_ZN3sls12basic_plugin9set_valueEP4exprb.exit

26:                                               ; preds = %._crit_edge
  %27 = load ptr, ptr %11, align 8, !tbaa !11
  %28 = lshr i32 %17, 1
  %29 = getelementptr inbounds nuw i8, ptr %27, i64 8
  %30 = load ptr, ptr %29, align 8, !tbaa !101
  %31 = load ptr, ptr %30, align 8, !tbaa !129
  %32 = getelementptr inbounds nuw i8, ptr %31, i64 40
  %33 = load ptr, ptr %32, align 8
  tail call void %33(ptr noundef nonnull align 8 dereferenceable(8) %30, i32 noundef %28)
  %34 = load ptr, ptr %11, align 8, !tbaa !11
  tail call void @_ZN3sls7context12new_value_ehEP4expr(ptr noundef nonnull align 8 dereferenceable(321) %34, ptr noundef %7)
  br label %_ZN3sls12basic_plugin9set_valueEP4exprb.exit

_ZN3sls12basic_plugin9set_valueEP4exprb.exit:     ; preds = %._crit_edge, %26
  ret i1 true

35:                                               ; preds = %.lr.ph, %45
  %36 = phi i32 [ %9, %.lr.ph ], [ %46, %45 ]
  %indvars.iv = phi i64 [ 0, %.lr.ph ], [ %indvars.iv.next, %45 ]
  %.016 = phi i8 [ 0, %.lr.ph ], [ %.1, %45 ]
  %.not = icmp eq i64 %indvars.iv, %5
  br i1 %.not, label %45, label %37

37:                                               ; preds = %35
  %38 = getelementptr inbounds nuw [0 x ptr], ptr %4, i64 0, i64 %indvars.iv
  %39 = load ptr, ptr %38, align 8, !tbaa !36
  %40 = load ptr, ptr %10, align 8, !tbaa !11
  %41 = tail call noundef zeroext i1 @_ZN3sls7context7is_trueEP4expr(ptr noundef nonnull align 8 dereferenceable(321) %40, ptr noundef %39)
  %42 = zext i1 %41 to i8
  %43 = icmp ne i8 %.016, %42
  %44 = zext i1 %43 to i8
  %.pre = load i32, ptr %8, align 8, !tbaa !35
  br label %45

45:                                               ; preds = %35, %37
  %46 = phi i32 [ %.pre, %37 ], [ %36, %35 ]
  %.1 = phi i8 [ %44, %37 ], [ %.016, %35 ]
  %indvars.iv.next = add nuw nsw i64 %indvars.iv, 1
  %47 = zext i32 %46 to i64
  %48 = icmp samesign ult i64 %indvars.iv.next, %47
  br i1 %48, label %35, label %._crit_edge, !llvm.loop !135
}